target datalayout = "e-m:e-p270:32:32-p271:32:32-p272:64:64-i64:64-i128:128-f80:128-n8:16:32:64-S128"
target triple = "x86_64-pc-linux-gnu"

%"struct.os::Linux::meminfo_t" = type { i64, i64, i64, i64, i64, i64, i64, i64 }
%"struct.os::Linux::glibc_mallinfo" = type { i64, i64, i64, i64, i64, i64, i64, i64, i64, i64 }
%struct.new_mallinfo = type { i64, i64, i64, i64, i64, i64, i64, i64, i64, i64 }
%struct.old_mallinfo = type { i32, i32, i32, i32, i32, i32, i32, i32, i32, i32 }

@.str.24 = private unnamed_addr constant [1 x i8] zeroinitializer, align 1
@.str.130 = private unnamed_addr constant [16 x i8] c"Process Memory:\00", align 1
@.str.131 = private unnamed_addr constant [32 x i8] c"Virtual Size: %ldK (peak: %ldK)\00", align 1
@.str.132 = private unnamed_addr constant [37 x i8] c"Resident Set Size: %ldK (peak: %ldK)\00", align 1
@.str.133 = private unnamed_addr constant [39 x i8] c" (anon: %ldK, file: %ldK, shmem: %ldK)\00", align 1
@.str.134 = private unnamed_addr constant [18 x i8] c"Swapped out: %ldK\00", align 1
@.str.135 = private unnamed_addr constant [75 x i8] c"Could not open /proc/self/status to get process memory related information\00", align 1
@.str.136 = private unnamed_addr constant [55 x i8] c"C-Heap outstanding allocations: %luK, retained: %luK%s\00", align 1
@.str.137 = private unnamed_addr constant [20 x i8] c" (may have wrapped)\00", align 1
@.str.186 = private unnamed_addr constant [34 x i8] c"src/hotspot/os/linux/os_linux.cpp\00", align 1
@g_assert_poison = external global ptr, align 8
@_ZL10g_mallinfo = internal global ptr null, align 8
@_ZL11g_mallinfo2 = internal global ptr null, align 8
@_ZZL27print_glibc_malloc_tunablesP12outputStreamE3var = internal global [10 x ptr] [ptr @.str.290, ptr @.str.291, ptr @.str.292, ptr @.str.293, ptr @.str.294, ptr @.str.295, ptr @.str.296, ptr @.str.297, ptr @.str.298, ptr null], align 16
@.str.299 = private unnamed_addr constant [24 x i8] c"glibc malloc tunables: \00", align 1
@.str.300 = private unnamed_addr constant [8 x i8] c"%s%s=%s\00", align 1
@.str.301 = private unnamed_addr constant [3 x i8] c", \00", align 1
@.str.302 = private unnamed_addr constant [10 x i8] c"(default)\00", align 1

; Function Attrs: mustprogress nounwind uwtable
define internal void @_ZL27print_glibc_malloc_tunablesP12outputStream(ptr noundef %0) #1 {
  %2 = alloca ptr, align 8
  %3 = alloca i8, align 1
  %4 = alloca i32, align 4
  %5 = alloca ptr, align 8
  store ptr %0, ptr %2, align 8
  %6 = load ptr, ptr %2, align 8
  call void (ptr, ptr, ...) @_ZN12outputStream5printEPKcz(ptr noundef nonnull align 8 dereferenceable(56) %6, ptr noundef @.str.299)
  store i8 0, ptr %3, align 1
  store i32 0, ptr %4, align 4
  br label %7

7:                                                ; preds = %32, %1
  %8 = load i32, ptr %4, align 4
  %9 = sext i32 %8 to i64
  %10 = getelementptr inbounds [10 x ptr], ptr @_ZZL27print_glibc_malloc_tunablesP12outputStreamE3var, i64 0, i64 %9
  %11 = load ptr, ptr %10, align 8
  %12 = icmp ne ptr %11, null
  br i1 %12, label %13, label %35

13:                                               ; preds = %7
  %14 = load i32, ptr %4, align 4
  %15 = sext i32 %14 to i64
  %16 = getelementptr inbounds [10 x ptr], ptr @_ZZL27print_glibc_malloc_tunablesP12outputStreamE3var, i64 0, i64 %15
  %17 = load ptr, ptr %16, align 8
  %18 = call ptr @getenv(ptr noundef %17) #12
  store ptr %18, ptr %5, align 8
  %19 = load ptr, ptr %5, align 8
  %20 = icmp ne ptr %19, null
  br i1 %20, label %21, label %31

21:                                               ; preds = %13
  %22 = load ptr, ptr %2, align 8
  %23 = load i8, ptr %3, align 1
  %24 = trunc i8 %23 to i1
  %25 = select i1 %24, ptr @.str.301, ptr @.str.24
  %26 = load i32, ptr %4, align 4
  %27 = sext i32 %26 to i64
  %28 = getelementptr inbounds [10 x ptr], ptr @_ZZL27print_glibc_malloc_tunablesP12outputStreamE3var, i64 0, i64 %27
  %29 = load ptr, ptr %28, align 8
  %30 = load ptr, ptr %5, align 8
  call void (ptr, ptr, ...) @_ZN12outputStream5printEPKcz(ptr noundef nonnull align 8 dereferenceable(56) %22, ptr noundef @.str.300, ptr noundef %25, ptr noundef %29, ptr noundef %30)
  store i8 1, ptr %3, align 1
  br label %31

31:                                               ; preds = %21, %13
  br label %32

32:                                               ; preds = %31
  %33 = load i32, ptr %4, align 4
  %34 = add nsw i32 %33, 1
  store i32 %34, ptr %4, align 4
  br label %7, !llvm.loop !25

35:                                               ; preds = %7
  %36 = load i8, ptr %3, align 1
  %37 = trunc i8 %36 to i1
  br i1 %37, label %40, label %38

38:                                               ; preds = %35
  %39 = load ptr, ptr %2, align 8
  call void (ptr, ptr, ...) @_ZN12outputStream5printEPKcz(ptr noundef nonnull align 8 dereferenceable(56) %39, ptr noundef @.str.302)
  br label %40

40:                                               ; preds = %38, %35
  ret void
}

; Function Attrs: mustprogress nounwind uwtable
define hidden void @_ZN2os5Linux12get_mallinfoEPNS0_14glibc_mallinfoEPb(ptr noundef %0, ptr noundef %1) #1 align 2 {
  %3 = alloca ptr, align 8
  %4 = alloca ptr, align 8
  %5 = alloca %struct.new_mallinfo, align 8
  %6 = alloca %struct.old_mallinfo, align 4
  store ptr %0, ptr %3, align 8
  store ptr %1, ptr %4, align 8
  %7 = load ptr, ptr @_ZL11g_mallinfo2, align 8
  %8 = icmp ne ptr %7, null
  br i1 %8, label %9, label %52

9:                                                ; preds = %2
  %10 = load ptr, ptr @_ZL11g_mallinfo2, align 8
  call void %10(ptr dead_on_unwind writable sret(%struct.new_mallinfo) align 8 %5)
  %11 = getelementptr inbounds %struct.new_mallinfo, ptr %5, i32 0, i32 0
  %12 = load i64, ptr %11, align 8
  %13 = load ptr, ptr %3, align 8
  %14 = getelementptr inbounds %"struct.os::Linux::glibc_mallinfo", ptr %13, i32 0, i32 0
  store i64 %12, ptr %14, align 8
  %15 = getelementptr inbounds %struct.new_mallinfo, ptr %5, i32 0, i32 1
  %16 = load i64, ptr %15, align 8
  %17 = load ptr, ptr %3, align 8
  %18 = getelementptr inbounds %"struct.os::Linux::glibc_mallinfo", ptr %17, i32 0, i32 1
  store i64 %16, ptr %18, align 8
  %19 = getelementptr inbounds %struct.new_mallinfo, ptr %5, i32 0, i32 2
  %20 = load i64, ptr %19, align 8
  %21 = load ptr, ptr %3, align 8
  %22 = getelementptr inbounds %"struct.os::Linux::glibc_mallinfo", ptr %21, i32 0, i32 2
  store i64 %20, ptr %22, align 8
  %23 = getelementptr inbounds %struct.new_mallinfo, ptr %5, i32 0, i32 3
  %24 = load i64, ptr %23, align 8
  %25 = load ptr, ptr %3, align 8
  %26 = getelementptr inbounds %"struct.os::Linux::glibc_mallinfo", ptr %25, i32 0, i32 3
  store i64 %24, ptr %26, align 8
  %27 = getelementptr inbounds %struct.new_mallinfo, ptr %5, i32 0, i32 4
  %28 = load i64, ptr %27, align 8
  %29 = load ptr, ptr %3, align 8
  %30 = getelementptr inbounds %"struct.os::Linux::glibc_mallinfo", ptr %29, i32 0, i32 4
  store i64 %28, ptr %30, align 8
  %31 = getelementptr inbounds %struct.new_mallinfo, ptr %5, i32 0, i32 5
  %32 = load i64, ptr %31, align 8
  %33 = load ptr, ptr %3, align 8
  %34 = getelementptr inbounds %"struct.os::Linux::glibc_mallinfo", ptr %33, i32 0, i32 5
  store i64 %32, ptr %34, align 8
  %35 = getelementptr inbounds %struct.new_mallinfo, ptr %5, i32 0, i32 6
  %36 = load i64, ptr %35, align 8
  %37 = load ptr, ptr %3, align 8
  %38 = getelementptr inbounds %"struct.os::Linux::glibc_mallinfo", ptr %37, i32 0, i32 6
  store i64 %36, ptr %38, align 8
  %39 = getelementptr inbounds %struct.new_mallinfo, ptr %5, i32 0, i32 7
  %40 = load i64, ptr %39, align 8
  %41 = load ptr, ptr %3, align 8
  %42 = getelementptr inbounds %"struct.os::Linux::glibc_mallinfo", ptr %41, i32 0, i32 7
  store i64 %40, ptr %42, align 8
  %43 = getelementptr inbounds %struct.new_mallinfo, ptr %5, i32 0, i32 8
  %44 = load i64, ptr %43, align 8
  %45 = load ptr, ptr %3, align 8
  %46 = getelementptr inbounds %"struct.os::Linux::glibc_mallinfo", ptr %45, i32 0, i32 8
  store i64 %44, ptr %46, align 8
  %47 = getelementptr inbounds %struct.new_mallinfo, ptr %5, i32 0, i32 9
  %48 = load i64, ptr %47, align 8
  %49 = load ptr, ptr %3, align 8
  %50 = getelementptr inbounds %"struct.os::Linux::glibc_mallinfo", ptr %49, i32 0, i32 9
  store i64 %48, ptr %50, align 8
  %51 = load ptr, ptr %4, align 8
  store i8 0, ptr %51, align 1
  br label %113

52:                                               ; preds = %2
  %53 = load ptr, ptr @_ZL10g_mallinfo, align 8
  %54 = icmp ne ptr %53, null
  br i1 %54, label %55, label %108

55:                                               ; preds = %52
  %56 = load ptr, ptr @_ZL10g_mallinfo, align 8
  call void %56(ptr dead_on_unwind writable sret(%struct.old_mallinfo) align 4 %6)
  %57 = getelementptr inbounds %struct.old_mallinfo, ptr %6, i32 0, i32 0
  %58 = load i32, ptr %57, align 4
  %59 = zext i32 %58 to i64
  %60 = load ptr, ptr %3, align 8
  %61 = getelementptr inbounds %"struct.os::Linux::glibc_mallinfo", ptr %60, i32 0, i32 0
  store i64 %59, ptr %61, align 8
  %62 = getelementptr inbounds %struct.old_mallinfo, ptr %6, i32 0, i32 1
  %63 = load i32, ptr %62, align 4
  %64 = zext i32 %63 to i64
  %65 = load ptr, ptr %3, align 8
  %66 = getelementptr inbounds %"struct.os::Linux::glibc_mallinfo", ptr %65, i32 0, i32 1
  store i64 %64, ptr %66, align 8
  %67 = getelementptr inbounds %struct.old_mallinfo, ptr %6, i32 0, i32 2
  %68 = load i32, ptr %67, align 4
  %69 = zext i32 %68 to i64
  %70 = load ptr, ptr %3, align 8
  %71 = getelementptr inbounds %"struct.os::Linux::glibc_mallinfo", ptr %70, i32 0, i32 2
  store i64 %69, ptr %71, align 8
  %72 = getelementptr inbounds %struct.old_mallinfo, ptr %6, i32 0, i32 3
  %73 = load i32, ptr %72, align 4
  %74 = zext i32 %73 to i64
  %75 = load ptr, ptr %3, align 8
  %76 = getelementptr inbounds %"struct.os::Linux::glibc_mallinfo", ptr %75, i32 0, i32 3
  store i64 %74, ptr %76, align 8
  %77 = getelementptr inbounds %struct.old_mallinfo, ptr %6, i32 0, i32 4
  %78 = load i32, ptr %77, align 4
  %79 = zext i32 %78 to i64
  %80 = load ptr, ptr %3, align 8
  %81 = getelementptr inbounds %"struct.os::Linux::glibc_mallinfo", ptr %80, i32 0, i32 4
  store i64 %79, ptr %81, align 8
  %82 = getelementptr inbounds %struct.old_mallinfo, ptr %6, i32 0, i32 5
  %83 = load i32, ptr %82, align 4
  %84 = zext i32 %83 to i64
  %85 = load ptr, ptr %3, align 8
  %86 = getelementptr inbounds %"struct.os::Linux::glibc_mallinfo", ptr %85, i32 0, i32 5
  store i64 %84, ptr %86, align 8
  %87 = getelementptr inbounds %struct.old_mallinfo, ptr %6, i32 0, i32 6
  %88 = load i32, ptr %87, align 4
  %89 = zext i32 %88 to i64
  %90 = load ptr, ptr %3, align 8
  %91 = getelementptr inbounds %"struct.os::Linux::glibc_mallinfo", ptr %90, i32 0, i32 6
  store i64 %89, ptr %91, align 8
  %92 = getelementptr inbounds %struct.old_mallinfo, ptr %6, i32 0, i32 7
  %93 = load i32, ptr %92, align 4
  %94 = zext i32 %93 to i64
  %95 = load ptr, ptr %3, align 8
  %96 = getelementptr inbounds %"struct.os::Linux::glibc_mallinfo", ptr %95, i32 0, i32 7
  store i64 %94, ptr %96, align 8
  %97 = getelementptr inbounds %struct.old_mallinfo, ptr %6, i32 0, i32 8
  %98 = load i32, ptr %97, align 4
  %99 = zext i32 %98 to i64
  %100 = load ptr, ptr %3, align 8
  %101 = getelementptr inbounds %"struct.os::Linux::glibc_mallinfo", ptr %100, i32 0, i32 8
  store i64 %99, ptr %101, align 8
  %102 = getelementptr inbounds %struct.old_mallinfo, ptr %6, i32 0, i32 9
  %103 = load i32, ptr %102, align 4
  %104 = zext i32 %103 to i64
  %105 = load ptr, ptr %3, align 8
  %106 = getelementptr inbounds %"struct.os::Linux::glibc_mallinfo", ptr %105, i32 0, i32 9
  store i64 %104, ptr %106, align 8
  %107 = load ptr, ptr %4, align 8
  store i8 1, ptr %107, align 1
  br label %112

108:                                              ; preds = %52
  br label %109

109:                                              ; preds = %108
  %110 = load ptr, ptr @g_assert_poison, align 8
  store i8 88, ptr %110, align 1
  call void @_Z28report_should_not_reach_herePKci(ptr noundef @.str.186, i32 noundef 5472) #15
  unreachable

111:                                              ; No predecessors!
  br label %112

112:                                              ; preds = %111, %55
  br label %113

113:                                              ; preds = %112, %9
  ret void
}

; Function Attrs: mustprogress nounwind uwtable
define hidden void @_ZN2os5Linux25print_process_memory_infoEP12outputStream(ptr noundef %0) #1 align 2 {
  %2 = alloca ptr, align 8
  %3 = alloca %"struct.os::Linux::meminfo_t", align 8
  %4 = alloca i64, align 8
  %5 = alloca i64, align 8
  %6 = alloca i8, align 1
  %7 = alloca %"struct.os::Linux::glibc_mallinfo", align 8
  store ptr %0, ptr %2, align 8
  %8 = load ptr, ptr %2, align 8
  call void (ptr, ptr, ...) @_ZN12outputStream8print_crEPKcz(ptr noundef nonnull align 8 dereferenceable(56) %8, ptr noundef @.str.130)
  %9 = call noundef zeroext i1 @_ZN2os5Linux25query_process_memory_infoEPNS0_9meminfo_tE(ptr noundef %3)
  br i1 %9, label %10, label %42

10:                                               ; preds = %1
  %11 = load ptr, ptr %2, align 8
  %12 = getelementptr inbounds %"struct.os::Linux::meminfo_t", ptr %3, i32 0, i32 0
  %13 = load i64, ptr %12, align 8
  %14 = getelementptr inbounds %"struct.os::Linux::meminfo_t", ptr %3, i32 0, i32 1
  %15 = load i64, ptr %14, align 8
  call void (ptr, ptr, ...) @_ZN12outputStream8print_crEPKcz(ptr noundef nonnull align 8 dereferenceable(56) %11, ptr noundef @.str.131, i64 noundef %13, i64 noundef %15)
  %16 = load ptr, ptr %2, align 8
  %17 = getelementptr inbounds %"struct.os::Linux::meminfo_t", ptr %3, i32 0, i32 2
  %18 = load i64, ptr %17, align 8
  %19 = getelementptr inbounds %"struct.os::Linux::meminfo_t", ptr %3, i32 0, i32 3
  %20 = load i64, ptr %19, align 8
  call void (ptr, ptr, ...) @_ZN12outputStream5printEPKcz(ptr noundef nonnull align 8 dereferenceable(56) %16, ptr noundef @.str.132, i64 noundef %18, i64 noundef %20)
  %21 = getelementptr inbounds %"struct.os::Linux::meminfo_t", ptr %3, i32 0, i32 5
  %22 = load i64, ptr %21, align 8
  %23 = icmp ne i64 %22, -1
  br i1 %23, label %24, label %32

24:                                               ; preds = %10
  %25 = load ptr, ptr %2, align 8
  %26 = getelementptr inbounds %"struct.os::Linux::meminfo_t", ptr %3, i32 0, i32 5
  %27 = load i64, ptr %26, align 8
  %28 = getelementptr inbounds %"struct.os::Linux::meminfo_t", ptr %3, i32 0, i32 6
  %29 = load i64, ptr %28, align 8
  %30 = getelementptr inbounds %"struct.os::Linux::meminfo_t", ptr %3, i32 0, i32 7
  %31 = load i64, ptr %30, align 8
  call void (ptr, ptr, ...) @_ZN12outputStream5printEPKcz(ptr noundef nonnull align 8 dereferenceable(56) %25, ptr noundef @.str.133, i64 noundef %27, i64 noundef %29, i64 noundef %31)
  br label %32

32:                                               ; preds = %24, %10
  %33 = load ptr, ptr %2, align 8
  call void @_ZN12outputStream2crEv(ptr noundef nonnull align 8 dereferenceable(56) %33)
  %34 = getelementptr inbounds %"struct.os::Linux::meminfo_t", ptr %3, i32 0, i32 4
  %35 = load i64, ptr %34, align 8
  %36 = icmp ne i64 %35, -1
  br i1 %36, label %37, label %41

37:                                               ; preds = %32
  %38 = load ptr, ptr %2, align 8
  %39 = getelementptr inbounds %"struct.os::Linux::meminfo_t", ptr %3, i32 0, i32 4
  %40 = load i64, ptr %39, align 8
  call void (ptr, ptr, ...) @_ZN12outputStream8print_crEPKcz(ptr noundef nonnull align 8 dereferenceable(56) %38, ptr noundef @.str.134, i64 noundef %40)
  br label %41

41:                                               ; preds = %37, %32
  br label %44

42:                                               ; preds = %1
  %43 = load ptr, ptr %2, align 8
  call void (ptr, ptr, ...) @_ZN12outputStream8print_crEPKcz(ptr noundef nonnull align 8 dereferenceable(56) %43, ptr noundef @.str.135)
  br label %44

44:                                               ; preds = %42, %41
  store i64 0, ptr %4, align 8
  store i64 0, ptr %5, align 8
  store i8 0, ptr %6, align 1
  call void @_ZN2os5Linux12get_mallinfoEPNS0_14glibc_mallinfoEPb(ptr noundef %7, ptr noundef %6)
  %45 = getelementptr inbounds %"struct.os::Linux::glibc_mallinfo", ptr %7, i32 0, i32 7
  %46 = load i64, ptr %45, align 8
  %47 = getelementptr inbounds %"struct.os::Linux::glibc_mallinfo", ptr %7, i32 0, i32 4
  %48 = load i64, ptr %47, align 8
  %49 = add i64 %46, %48
  store i64 %49, ptr %4, align 8
  %50 = getelementptr inbounds %"struct.os::Linux::glibc_mallinfo", ptr %7, i32 0, i32 8
  %51 = load i64, ptr %50, align 8
  store i64 %51, ptr %5, align 8
  %52 = load i8, ptr %6, align 1
  %53 = trunc i8 %52 to i1
  br i1 %53, label %54, label %59

54:                                               ; preds = %44
  %55 = getelementptr inbounds %"struct.os::Linux::meminfo_t", ptr %3, i32 0, i32 0
  %56 = load i64, ptr %55, align 8
  %57 = mul i64 %56, 1024
  %58 = icmp ugt i64 %57, 4294967295
  br label %59

59:                                               ; preds = %54, %44
  %60 = phi i1 [ false, %44 ], [ %58, %54 ]
  %61 = zext i1 %60 to i8
  store i8 %61, ptr %6, align 1
  %62 = load ptr, ptr %2, align 8
  %63 = load i64, ptr %4, align 8
  %64 = udiv i64 %63, 1024
  %65 = load i64, ptr %5, align 8
  %66 = udiv i64 %65, 1024
  %67 = load i8, ptr %6, align 1
  %68 = trunc i8 %67 to i1
  %69 = select i1 %68, ptr @.str.137, ptr @.str.24
  call void (ptr, ptr, ...) @_ZN12outputStream8print_crEPKcz(ptr noundef nonnull align 8 dereferenceable(56) %62, ptr noundef @.str.136, i64 noundef %64, i64 noundef %66, ptr noundef %69)
  %70 = load ptr, ptr %2, align 8
  call void @_ZL27print_glibc_malloc_tunablesP12outputStream(ptr noundef %70)
  %71 = load ptr, ptr %2, align 8
  call void @_ZN12outputStream2crEv(ptr noundef nonnull align 8 dereferenceable(56) %71)
  ret void
}