; Function Attrs: mustprogress nounwind uwtable
define hidden void @_ZN2os5Linux25print_process_memory_infoEP12outputStream(ptr noundef nonnull %0) local_unnamed_addr #0 align 2 {
  %2 = alloca %struct.new_mallinfo, align 8
  %3 = alloca %struct.old_mallinfo, align 4
  %4 = alloca %"struct.os::Linux::meminfo_t", align 8
  tail call void (ptr, ptr, ...) @_ZN12outputStream8print_crEPKcz(ptr noundef nonnull align 8 dereferenceable(56) %0, ptr noundef nonnull @.str.130) #26
  %5 = call noundef zeroext i1 @_ZN2os5Linux25query_process_memory_infoEPNS0_9meminfo_tE(ptr noundef nonnull %4)
  br i1 %5, label %6, label %25

6:                                                ; preds = %1
  %7 = load i64, ptr %4, align 8
  %8 = getelementptr inbounds i8, ptr %4, i64 8
  %9 = load i64, ptr %8, align 8
  call void (ptr, ptr, ...) @_ZN12outputStream8print_crEPKcz(ptr noundef nonnull align 8 dereferenceable(56) %0, ptr noundef nonnull @.str.131, i64 noundef %7, i64 noundef %9) #26
  %10 = getelementptr inbounds i8, ptr %4, i64 16
  %11 = load i64, ptr %10, align 8
  %12 = getelementptr inbounds i8, ptr %4, i64 24
  %13 = load i64, ptr %12, align 8
  call void (ptr, ptr, ...) @_ZN12outputStream5printEPKcz(ptr noundef nonnull align 8 dereferenceable(56) %0, ptr noundef nonnull @.str.132, i64 noundef %11, i64 noundef %13) #26
  %14 = getelementptr inbounds i8, ptr %4, i64 40
  %15 = load i64, ptr %14, align 8
  %.not = icmp eq i64 %15, -1
  br i1 %.not, label %21, label %16

16:                                               ; preds = %6
  %17 = getelementptr inbounds i8, ptr %4, i64 48
  %18 = load i64, ptr %17, align 8
  %19 = getelementptr inbounds i8, ptr %4, i64 56
  %20 = load i64, ptr %19, align 8
  call void (ptr, ptr, ...) @_ZN12outputStream5printEPKcz(ptr noundef nonnull align 8 dereferenceable(56) %0, ptr noundef nonnull @.str.133, i64 noundef %15, i64 noundef %18, i64 noundef %20) #26
  br label %21

21:                                               ; preds = %16, %6
  call void @_ZN12outputStream2crEv(ptr noundef nonnull align 8 dereferenceable(56) %0) #26
  %22 = getelementptr inbounds i8, ptr %4, i64 32
  %23 = load i64, ptr %22, align 8
  %.not12 = icmp eq i64 %23, -1
  br i1 %.not12, label %26, label %24

24:                                               ; preds = %21
  call void (ptr, ptr, ...) @_ZN12outputStream8print_crEPKcz(ptr noundef nonnull align 8 dereferenceable(56) %0, ptr noundef nonnull @.str.134, i64 noundef %23) #26
  br label %26

25:                                               ; preds = %1
  call void (ptr, ptr, ...) @_ZN12outputStream8print_crEPKcz(ptr noundef nonnull align 8 dereferenceable(56) %0, ptr noundef nonnull @.str.135) #26
  br label %26

26:                                               ; preds = %21, %24, %25
  call void @llvm.lifetime.start.p0(i64 80, ptr nonnull %2)
  call void @llvm.lifetime.start.p0(i64 40, ptr nonnull %3)
  %27 = load ptr, ptr @_ZL11g_mallinfo2, align 8
  %.not.i = icmp eq ptr %27, null
  br i1 %.not.i, label %35, label %28

28:                                               ; preds = %26
  call void %27(ptr dead_on_unwind nonnull writable sret(%struct.new_mallinfo) align 8 %2) #26
  %29 = getelementptr inbounds i8, ptr %2, i64 32
  %30 = load i64, ptr %29, align 8
  %31 = getelementptr inbounds i8, ptr %2, i64 56
  %32 = load i64, ptr %31, align 8
  %33 = getelementptr inbounds i8, ptr %2, i64 64
  %34 = load i64, ptr %33, align 8
  br label %_ZN2os5Linux12get_mallinfoEPNS0_14glibc_mallinfoEPb.exit

35:                                               ; preds = %26
  %36 = load ptr, ptr @_ZL10g_mallinfo, align 8
  %.not23.i = icmp eq ptr %36, null
  br i1 %.not23.i, label %47, label %37

37:                                               ; preds = %35
  call void %36(ptr dead_on_unwind nonnull writable sret(%struct.old_mallinfo) align 4 %3) #26
  %38 = getelementptr inbounds i8, ptr %3, i64 16
  %39 = load i32, ptr %38, align 4
  %40 = zext i32 %39 to i64
  %41 = getelementptr inbounds i8, ptr %3, i64 28
  %42 = load i32, ptr %41, align 4
  %43 = zext i32 %42 to i64
  %44 = getelementptr inbounds i8, ptr %3, i64 32
  %45 = load i32, ptr %44, align 4
  %46 = zext i32 %45 to i64
  br label %_ZN2os5Linux12get_mallinfoEPNS0_14glibc_mallinfoEPb.exit

47:                                               ; preds = %35
  %48 = load ptr, ptr @g_assert_poison, align 8
  store i8 88, ptr %48, align 1
  call void @_Z28report_should_not_reach_herePKci(ptr noundef nonnull @.str.186, i32 noundef 5472) #29
  unreachable

_ZN2os5Linux12get_mallinfoEPNS0_14glibc_mallinfoEPb.exit: ; preds = %28, %37
  %.sroa.18.0 = phi i64 [ %46, %37 ], [ %34, %28 ]
  %.sroa.15.0 = phi i64 [ %43, %37 ], [ %32, %28 ]
  %.sroa.8.0 = phi i64 [ %40, %37 ], [ %30, %28 ]
  call void @llvm.lifetime.end.p0(i64 80, ptr nonnull %2)
  call void @llvm.lifetime.end.p0(i64 40, ptr nonnull %3)
  %49 = add i64 %.sroa.8.0, %.sroa.15.0
  %50 = load i64, ptr %4, align 8
  %51 = and i64 %50, 18014398505287680
  %52 = icmp ne i64 %51, 0
  %53 = select i1 %.not.i, i1 %52, i1 false
  %54 = lshr i64 %49, 10
  %55 = lshr i64 %.sroa.18.0, 10
  %56 = select i1 %53, ptr @.str.137, ptr @.str.24
  call void (ptr, ptr, ...) @_ZN12outputStream8print_crEPKcz(ptr noundef nonnull align 8 dereferenceable(56) %0, ptr noundef nonnull @.str.136, i64 noundef %54, i64 noundef %55, ptr noundef nonnull %56) #26
  call void (ptr, ptr, ...) @_ZN12outputStream5printEPKcz(ptr noundef nonnull align 8 dereferenceable(56) %0, ptr noundef nonnull @.str.299) #26
  br label %57

57:                                               ; preds = %63, %_ZN2os5Linux12get_mallinfoEPNS0_14glibc_mallinfoEPb.exit
  %indvars.iv.i = phi i64 [ 0, %_ZN2os5Linux12get_mallinfoEPNS0_14glibc_mallinfoEPb.exit ], [ %indvars.iv.next.i, %63 ]
  %58 = phi ptr [ @.str.290, %_ZN2os5Linux12get_mallinfoEPNS0_14glibc_mallinfoEPb.exit ], [ %65, %63 ]
  %.015.i = phi i8 [ 0, %_ZN2os5Linux12get_mallinfoEPNS0_14glibc_mallinfoEPb.exit ], [ %.1.i, %63 ]
  %59 = call ptr @getenv(ptr noundef %58) #26
  %.not13.i = icmp eq ptr %59, null
  br i1 %.not13.i, label %63, label %60

60:                                               ; preds = %57
  %61 = trunc nuw i8 %.015.i to i1
  %62 = select i1 %61, ptr @.str.301, ptr @.str.24
  call void (ptr, ptr, ...) @_ZN12outputStream5printEPKcz(ptr noundef nonnull align 8 dereferenceable(56) %0, ptr noundef nonnull @.str.300, ptr noundef nonnull %62, ptr noundef %58, ptr noundef nonnull %59) #26
  br label %63

63:                                               ; preds = %60, %57
  %.1.i = phi i8 [ 1, %60 ], [ %.015.i, %57 ]
  %indvars.iv.next.i = add nuw nsw i64 %indvars.iv.i, 1
  %64 = getelementptr inbounds [10 x ptr], ptr @_ZZL27print_glibc_malloc_tunablesP12outputStreamE3var, i64 0, i64 %indvars.iv.next.i
  %65 = load ptr, ptr %64, align 8
  %.not.i13 = icmp eq i64 %indvars.iv.next.i, 9
  br i1 %.not.i13, label %66, label %57, !llvm.loop !25

66:                                               ; preds = %63
  %67 = trunc nuw i8 %.1.i to i1
  br i1 %67, label %_ZL27print_glibc_malloc_tunablesP12outputStream.exit, label %68

68:                                               ; preds = %66
  call void (ptr, ptr, ...) @_ZN12outputStream5printEPKcz(ptr noundef nonnull align 8 dereferenceable(56) %0, ptr noundef nonnull @.str.302) #26
  br label %_ZL27print_glibc_malloc_tunablesP12outputStream.exit

_ZL27print_glibc_malloc_tunablesP12outputStream.exit: ; preds = %66, %68
  call void @_ZN12outputStream2crEv(ptr noundef nonnull align 8 dereferenceable(56) %0) #26
  ret void
}